target datalayout = "e-m:e-p270:32:32-p271:32:32-p272:64:64-i64:64-i128:128-f80:128-n8:16:32:64-S128"
target triple = "x86_64-pc-linux-gnu"

%struct.grpc_resolved_address = type { [128 x i8], i32 }
%struct.sockaddr = type { i16, [14 x i8] }
%struct.sockaddr_in6 = type { i16, i16, i32, %struct.in6_addr, i32 }
%struct.in6_addr = type { %union.anon }
%union.anon = type { [4 x i32] }
%struct.sockaddr_in = type { i16, i16, %struct.in_addr, [8 x i8] }
%struct.in_addr = type { i32 }

; Function Attrs: mustprogress uwtable
define noundef zeroext i1 @_Z26grpc_sockaddr_match_subnetPK21grpc_resolved_addressS1_j(ptr noundef %0, ptr noundef %1, i32 noundef %2) #4 {
  %4 = alloca i1, align 1
  %5 = alloca ptr, align 8
  %6 = alloca ptr, align 8
  %7 = alloca i32, align 4
  %8 = alloca ptr, align 8
  %9 = alloca ptr, align 8
  %10 = alloca i32, align 4
  %11 = alloca %struct.grpc_resolved_address, align 4
  %12 = alloca ptr, align 8
  %13 = alloca ptr, align 8
  %14 = alloca ptr, align 8
  %15 = alloca ptr, align 8
  store ptr %0, ptr %5, align 8, !tbaa !3
  store ptr %1, ptr %6, align 8, !tbaa !3
  store i32 %2, ptr %7, align 4, !tbaa !43
  call void @llvm.lifetime.start.p0(i64 8, ptr %8) #3
  %16 = load ptr, ptr %5, align 8, !tbaa !3
  %17 = getelementptr inbounds nuw %struct.grpc_resolved_address, ptr %16, i32 0, i32 0
  %18 = getelementptr inbounds [128 x i8], ptr %17, i64 0, i64 0
  store ptr %18, ptr %8, align 8, !tbaa !8
  call void @llvm.lifetime.start.p0(i64 8, ptr %9) #3
  %19 = load ptr, ptr %6, align 8, !tbaa !3
  %20 = getelementptr inbounds nuw %struct.grpc_resolved_address, ptr %19, i32 0, i32 0
  %21 = getelementptr inbounds [128 x i8], ptr %20, i64 0, i64 0
  store ptr %21, ptr %9, align 8, !tbaa !8
  %22 = load ptr, ptr %8, align 8, !tbaa !8
  %23 = getelementptr inbounds nuw %struct.sockaddr, ptr %22, i32 0, i32 0
  %24 = load i16, ptr %23, align 2, !tbaa !12
  %25 = zext i16 %24 to i32
  %26 = load ptr, ptr %9, align 8, !tbaa !8
  %27 = getelementptr inbounds nuw %struct.sockaddr, ptr %26, i32 0, i32 0
  %28 = load i16, ptr %27, align 2, !tbaa !12
  %29 = zext i16 %28 to i32
  %30 = icmp ne i32 %25, %29
  br i1 %30, label %31, label %32

31:                                               ; preds = %3
  store i1 false, ptr %4, align 1
  store i32 1, ptr %10, align 4
  br label %79

32:                                               ; preds = %3
  call void @llvm.lifetime.start.p0(i64 132, ptr %11) #3
  %33 = load ptr, ptr %5, align 8, !tbaa !3
  call void @llvm.memcpy.p0.p0.i64(ptr align 4 %11, ptr align 4 %33, i64 132, i1 false)
  %34 = getelementptr inbounds nuw %struct.grpc_resolved_address, ptr %11, i32 0, i32 0
  %35 = getelementptr inbounds [128 x i8], ptr %34, i64 0, i64 0
  store ptr %35, ptr %8, align 8, !tbaa !8
  %36 = load i32, ptr %7, align 4, !tbaa !43
  call void @_Z23grpc_sockaddr_mask_bitsP21grpc_resolved_addressj(ptr noundef %11, i32 noundef %36)
  %37 = load ptr, ptr %8, align 8, !tbaa !8
  %38 = getelementptr inbounds nuw %struct.sockaddr, ptr %37, i32 0, i32 0
  %39 = load i16, ptr %38, align 2, !tbaa !12
  %40 = zext i16 %39 to i32
  %41 = icmp eq i32 %40, 2
  br i1 %41, label %42, label %56

42:                                               ; preds = %32
  call void @llvm.lifetime.start.p0(i64 8, ptr %12) #3
  %43 = load ptr, ptr %8, align 8, !tbaa !8
  store ptr %43, ptr %12, align 8, !tbaa !10
  call void @llvm.lifetime.start.p0(i64 8, ptr %13) #3
  %44 = load ptr, ptr %9, align 8, !tbaa !8
  store ptr %44, ptr %13, align 8, !tbaa !10
  %45 = load ptr, ptr %12, align 8, !tbaa !10
  %46 = getelementptr inbounds nuw %struct.sockaddr_in, ptr %45, i32 0, i32 2
  %47 = load ptr, ptr %13, align 8, !tbaa !10
  %48 = getelementptr inbounds nuw %struct.sockaddr_in, ptr %47, i32 0, i32 2
  %49 = call i32 @memcmp(ptr noundef %46, ptr noundef %48, i64 noundef 4) #23
  %50 = icmp eq i32 %49, 0
  br i1 %50, label %51, label %52

51:                                               ; preds = %42
  store i1 true, ptr %4, align 1
  store i32 1, ptr %10, align 4
  br label %53

52:                                               ; preds = %42
  store i32 0, ptr %10, align 4
  br label %53

53:                                               ; preds = %52, %51
  call void @llvm.lifetime.end.p0(i64 8, ptr %13) #3
  call void @llvm.lifetime.end.p0(i64 8, ptr %12) #3
  %54 = load i32, ptr %10, align 4
  switch i32 %54, label %78 [
    i32 0, label %55
  ]

55:                                               ; preds = %53
  br label %77

56:                                               ; preds = %32
  %57 = load ptr, ptr %8, align 8, !tbaa !8
  %58 = getelementptr inbounds nuw %struct.sockaddr, ptr %57, i32 0, i32 0
  %59 = load i16, ptr %58, align 2, !tbaa !12
  %60 = zext i16 %59 to i32
  %61 = icmp eq i32 %60, 10
  br i1 %61, label %62, label %76

62:                                               ; preds = %56
  call void @llvm.lifetime.start.p0(i64 8, ptr %14) #3
  %63 = load ptr, ptr %8, align 8, !tbaa !8
  store ptr %63, ptr %14, align 8, !tbaa !15
  call void @llvm.lifetime.start.p0(i64 8, ptr %15) #3
  %64 = load ptr, ptr %9, align 8, !tbaa !8
  store ptr %64, ptr %15, align 8, !tbaa !15
  %65 = load ptr, ptr %14, align 8, !tbaa !15
  %66 = getelementptr inbounds nuw %struct.sockaddr_in6, ptr %65, i32 0, i32 3
  %67 = load ptr, ptr %15, align 8, !tbaa !15
  %68 = getelementptr inbounds nuw %struct.sockaddr_in6, ptr %67, i32 0, i32 3
  %69 = call i32 @memcmp(ptr noundef %66, ptr noundef %68, i64 noundef 16) #23
  %70 = icmp eq i32 %69, 0
  br i1 %70, label %71, label %72

71:                                               ; preds = %62
  store i1 true, ptr %4, align 1
  store i32 1, ptr %10, align 4
  br label %73

72:                                               ; preds = %62
  store i32 0, ptr %10, align 4
  br label %73

73:                                               ; preds = %72, %71
  call void @llvm.lifetime.end.p0(i64 8, ptr %15) #3
  call void @llvm.lifetime.end.p0(i64 8, ptr %14) #3
  %74 = load i32, ptr %10, align 4
  switch i32 %74, label %78 [
    i32 0, label %75
  ]

75:                                               ; preds = %73
  br label %76

76:                                               ; preds = %75, %56
  br label %77

77:                                               ; preds = %76, %55
  store i1 false, ptr %4, align 1
  store i32 1, ptr %10, align 4
  br label %78

78:                                               ; preds = %77, %73, %53
  call void @llvm.lifetime.end.p0(i64 132, ptr %11) #3
  br label %79

79:                                               ; preds = %78, %31
  call void @llvm.lifetime.end.p0(i64 8, ptr %9) #3
  call void @llvm.lifetime.end.p0(i64 8, ptr %8) #3
  %80 = load i1, ptr %4, align 1
  ret i1 %80
}