; Function Attrs: mustprogress uwtable
define noundef zeroext i1 @_Z26grpc_sockaddr_match_subnetPK21grpc_resolved_addressS1_j(ptr noundef readonly captures(none) %0, ptr noundef readonly captures(none) %1, i32 noundef %2) local_unnamed_addr #3 {
  %4 = alloca %struct.grpc_resolved_address, align 4
  %5 = load i16, ptr %0, align 2, !tbaa !4
  %6 = load i16, ptr %1, align 2, !tbaa !4
  %.not = icmp eq i16 %5, %6
  br i1 %.not, label %7, label %17

7:                                                ; preds = %3
  call void @llvm.lifetime.start.p0(i64 132, ptr nonnull %4) #23
  call void @llvm.memcpy.p0.p0.i64(ptr noundef nonnull align 4 dereferenceable(132) %4, ptr noundef nonnull align 4 dereferenceable(132) %0, i64 132, i1 false)
  call void @_Z23grpc_sockaddr_mask_bitsP21grpc_resolved_addressj(ptr noundef nonnull %4, i32 noundef %2)
  %8 = load i16, ptr %4, align 4, !tbaa !4
  switch i16 %8, label %15 [
    i16 2, label %9
    i16 10, label %12
  ]

9:                                                ; preds = %7
  %10 = getelementptr inbounds nuw i8, ptr %4, i64 4
  %11 = getelementptr inbounds nuw i8, ptr %1, i64 4
  %bcmp23 = call i32 @bcmp(ptr noundef nonnull dereferenceable(4) %10, ptr noundef nonnull dereferenceable(4) %11, i64 4)
  %.not24 = icmp eq i32 %bcmp23, 0
  br i1 %.not24, label %16, label %15

12:                                               ; preds = %7
  %13 = getelementptr inbounds nuw i8, ptr %4, i64 8
  %14 = getelementptr inbounds nuw i8, ptr %1, i64 8
  %bcmp = call i32 @bcmp(ptr noundef nonnull dereferenceable(16) %13, ptr noundef nonnull dereferenceable(16) %14, i64 16)
  %.not22 = icmp eq i32 %bcmp, 0
  br i1 %.not22, label %16, label %15

15:                                               ; preds = %7, %12, %9
  br label %16

16:                                               ; preds = %9, %12, %15
  %.2 = phi i1 [ false, %15 ], [ true, %9 ], [ true, %12 ]
  call void @llvm.lifetime.end.p0(i64 132, ptr nonnull %4) #23
  br label %17

17:                                               ; preds = %3, %16
  %.0 = phi i1 [ %.2, %16 ], [ false, %3 ]
  ret i1 %.0
}